target datalayout = "e-m:e-p270:32:32-p271:32:32-p272:64:64-i64:64-i128:128-f80:128-n8:16:32:64-S128"
target triple = "x86_64-pc-linux-gnu"

%struct.PJconsts = type <{ ptr, ptr, ptr, ptr, ptr, ptr, ptr, ptr, ptr, ptr, ptr, ptr, i32, [4 x i8], ptr, ptr, ptr, ptr, ptr, ptr, ptr, ptr, double, double, double, double, double, double, double, double, double, double, double, double, double, double, double, double, double, double, double, double, double, double, i32, i32, i32, i32, i32, i32, i32, i32, i32, i32, i32, [4 x i8], ptr, ptr, ptr, ptr, ptr, ptr, double, double, double, double, double, double, double, double, double, double, double, i32, [4 x i8], [7 x double], i32, [4 x i8], ptr, ptr, double, double, i32, [4 x i8], %"class.std::shared_ptr", i8, [7 x i8], double, i8, [7 x i8], %"class.std::__cxx11::basic_string", %"class.std::__cxx11::basic_string", %"class.std::__cxx11::basic_string", i8, [7 x i8], %"class.std::vector", i32, [4 x i8], %"class.std::vector.3", i32, i8, i8, i8, i8 }>
%"class.std::shared_ptr" = type { %"class.std::__shared_ptr" }
%"class.std::__shared_ptr" = type { ptr, %"class.std::__shared_count" }
%"class.std::__shared_count" = type { ptr }
%"class.std::__cxx11::basic_string" = type { %"struct.std::__cxx11::basic_string<char>::_Alloc_hider", i64, %union.anon }
%"struct.std::__cxx11::basic_string<char>::_Alloc_hider" = type { ptr }
%union.anon = type { i64, [8 x i8] }
%"class.std::vector" = type { %"struct.std::_Vector_base" }
%"struct.std::_Vector_base" = type { %"struct.std::_Vector_base<osgeo::proj::operation::GridDescription, std::allocator<osgeo::proj::operation::GridDescription>>::_Vector_impl" }
%"struct.std::_Vector_base<osgeo::proj::operation::GridDescription, std::allocator<osgeo::proj::operation::GridDescription>>::_Vector_impl" = type { %"struct.std::_Vector_base<osgeo::proj::operation::GridDescription, std::allocator<osgeo::proj::operation::GridDescription>>::_Vector_impl_data" }
%"struct.std::_Vector_base<osgeo::proj::operation::GridDescription, std::allocator<osgeo::proj::operation::GridDescription>>::_Vector_impl_data" = type { ptr, ptr, ptr }
%"class.std::vector.3" = type { %"struct.std::_Vector_base.4" }
%"struct.std::_Vector_base.4" = type { %"struct.std::_Vector_base<PJCoordOperation, std::allocator<PJCoordOperation>>::_Vector_impl" }
%"struct.std::_Vector_base<PJCoordOperation, std::allocator<PJCoordOperation>>::_Vector_impl" = type { %"struct.std::_Vector_base<PJCoordOperation, std::allocator<PJCoordOperation>>::_Vector_impl_data" }
%"struct.std::_Vector_base<PJCoordOperation, std::allocator<PJCoordOperation>>::_Vector_impl_data" = type { ptr, ptr, ptr }
%union.PROJVALUE = type { double }
%"struct.(anonymous namespace)::pj_airy" = type { double, double, double, double, i32, i32 }

@.str.1 = private unnamed_addr constant [8 x i8] c"bno_cut\00", align 1
@.str.2 = private unnamed_addr constant [7 x i8] c"rlat_b\00", align 1

; Function Attrs: mustprogress uwtable
define hidden noundef ptr @_Z33pj_projection_specific_setup_airyP8PJconsts(ptr noundef %0) #0 {
  %2 = alloca ptr, align 8
  %3 = alloca ptr, align 8
  %4 = alloca double, align 8
  %5 = alloca ptr, align 8
  %6 = alloca %union.PROJVALUE, align 8
  %7 = alloca %union.PROJVALUE, align 8
  store ptr %0, ptr %3, align 8
  %8 = call noalias ptr @calloc(i64 noundef 1, i64 noundef 40) #6
  store ptr %8, ptr %5, align 8
  %9 = load ptr, ptr %5, align 8
  %10 = icmp eq ptr null, %9
  br i1 %10, label %11, label %14

11:                                               ; preds = %1
  %12 = load ptr, ptr %3, align 8
  %13 = call noundef ptr @_Z21pj_default_destructorP8PJconstsi(ptr noundef %12, i32 noundef 4096)
  store ptr %13, ptr %2, align 8
  br label %118

14:                                               ; preds = %1
  %15 = load ptr, ptr %5, align 8
  %16 = load ptr, ptr %3, align 8
  %17 = getelementptr inbounds %struct.PJconsts, ptr %16, i32 0, i32 11
  store ptr %15, ptr %17, align 8
  %18 = load ptr, ptr %3, align 8
  %19 = getelementptr inbounds %struct.PJconsts, ptr %18, i32 0, i32 0
  %20 = load ptr, ptr %19, align 8
  %21 = load ptr, ptr %3, align 8
  %22 = getelementptr inbounds %struct.PJconsts, ptr %21, i32 0, i32 3
  %23 = load ptr, ptr %22, align 8
  %24 = call i64 @_Z8pj_paramP6pj_ctxP8ARG_listPKc(ptr noundef %20, ptr noundef %23, ptr noundef @.str.1)
  %25 = getelementptr inbounds %union.PROJVALUE, ptr %6, i32 0, i32 0
  store i64 %24, ptr %25, align 8
  %26 = load i32, ptr %6, align 8
  %27 = load ptr, ptr %5, align 8
  %28 = getelementptr inbounds %"struct.(anonymous namespace)::pj_airy", ptr %27, i32 0, i32 5
  store i32 %26, ptr %28, align 4
  %29 = load ptr, ptr %3, align 8
  %30 = getelementptr inbounds %struct.PJconsts, ptr %29, i32 0, i32 0
  %31 = load ptr, ptr %30, align 8
  %32 = load ptr, ptr %3, align 8
  %33 = getelementptr inbounds %struct.PJconsts, ptr %32, i32 0, i32 3
  %34 = load ptr, ptr %33, align 8
  %35 = call i64 @_Z8pj_paramP6pj_ctxP8ARG_listPKc(ptr noundef %31, ptr noundef %34, ptr noundef @.str.2)
  %36 = getelementptr inbounds %union.PROJVALUE, ptr %7, i32 0, i32 0
  store i64 %35, ptr %36, align 8
  %37 = load double, ptr %7, align 8
  %38 = fsub double 0x3FF921FB54442D18, %37
  %39 = fmul double 5.000000e-01, %38
  store double %39, ptr %4, align 8
  %40 = load double, ptr %4, align 8
  %41 = call double @llvm.fabs.f64(double %40)
  %42 = fcmp olt double %41, 1.000000e-10
  br i1 %42, label %43, label %46

43:                                               ; preds = %14
  %44 = load ptr, ptr %5, align 8
  %45 = getelementptr inbounds %"struct.(anonymous namespace)::pj_airy", ptr %44, i32 0, i32 3
  store double -5.000000e-01, ptr %45, align 8
  br label %63

46:                                               ; preds = %14
  %47 = load double, ptr %4, align 8
  %48 = call double @tan(double noundef %47) #7
  %49 = fdiv double 1.000000e+00, %48
  %50 = load ptr, ptr %5, align 8
  %51 = getelementptr inbounds %"struct.(anonymous namespace)::pj_airy", ptr %50, i32 0, i32 3
  store double %49, ptr %51, align 8
  %52 = load ptr, ptr %5, align 8
  %53 = getelementptr inbounds %"struct.(anonymous namespace)::pj_airy", ptr %52, i32 0, i32 3
  %54 = load double, ptr %53, align 8
  %55 = load double, ptr %4, align 8
  %56 = call double @cos(double noundef %55) #7
  %57 = call double @log(double noundef %56) #7
  %58 = fmul double %54, %57
  %59 = load ptr, ptr %5, align 8
  %60 = getelementptr inbounds %"struct.(anonymous namespace)::pj_airy", ptr %59, i32 0, i32 3
  %61 = load double, ptr %60, align 8
  %62 = fmul double %61, %58
  store double %62, ptr %60, align 8
  br label %63

63:                                               ; preds = %46, %43
  %64 = load ptr, ptr %3, align 8
  %65 = getelementptr inbounds %struct.PJconsts, ptr %64, i32 0, i32 63
  %66 = load double, ptr %65, align 8
  %67 = call double @llvm.fabs.f64(double %66)
  %68 = fsub double %67, 0x3FF921FB54442D18
  %69 = call double @llvm.fabs.f64(double %68)
  %70 = fcmp olt double %69, 1.000000e-10
  br i1 %70, label %71, label %87

71:                                               ; preds = %63
  %72 = load ptr, ptr %3, align 8
  %73 = getelementptr inbounds %struct.PJconsts, ptr %72, i32 0, i32 63
  %74 = load double, ptr %73, align 8
  %75 = fcmp olt double %74, 0.000000e+00
  br i1 %75, label %76, label %81

76:                                               ; preds = %71
  %77 = load ptr, ptr %5, align 8
  %78 = getelementptr inbounds %"struct.(anonymous namespace)::pj_airy", ptr %77, i32 0, i32 0
  store double 0xBFF921FB54442D18, ptr %78, align 8
  %79 = load ptr, ptr %5, align 8
  %80 = getelementptr inbounds %"struct.(anonymous namespace)::pj_airy", ptr %79, i32 0, i32 4
  store i32 1, ptr %80, align 8
  br label %86

81:                                               ; preds = %71
  %82 = load ptr, ptr %5, align 8
  %83 = getelementptr inbounds %"struct.(anonymous namespace)::pj_airy", ptr %82, i32 0, i32 0
  store double 0x3FF921FB54442D18, ptr %83, align 8
  %84 = load ptr, ptr %5, align 8
  %85 = getelementptr inbounds %"struct.(anonymous namespace)::pj_airy", ptr %84, i32 0, i32 4
  store i32 0, ptr %85, align 8
  br label %86

86:                                               ; preds = %81, %76
  br label %112

87:                                               ; preds = %63
  %88 = load ptr, ptr %3, align 8
  %89 = getelementptr inbounds %struct.PJconsts, ptr %88, i32 0, i32 63
  %90 = load double, ptr %89, align 8
  %91 = call double @llvm.fabs.f64(double %90)
  %92 = fcmp olt double %91, 1.000000e-10
  br i1 %92, label %93, label %96

93:                                               ; preds = %87
  %94 = load ptr, ptr %5, align 8
  %95 = getelementptr inbounds %"struct.(anonymous namespace)::pj_airy", ptr %94, i32 0, i32 4
  store i32 2, ptr %95, align 8
  br label %111

96:                                               ; preds = %87
  %97 = load ptr, ptr %5, align 8
  %98 = getelementptr inbounds %"struct.(anonymous namespace)::pj_airy", ptr %97, i32 0, i32 4
  store i32 3, ptr %98, align 8
  %99 = load ptr, ptr %3, align 8
  %100 = getelementptr inbounds %struct.PJconsts, ptr %99, i32 0, i32 63
  %101 = load double, ptr %100, align 8
  %102 = call double @sin(double noundef %101) #7
  %103 = load ptr, ptr %5, align 8
  %104 = getelementptr inbounds %"struct.(anonymous namespace)::pj_airy", ptr %103, i32 0, i32 1
  store double %102, ptr %104, align 8
  %105 = load ptr, ptr %3, align 8
  %106 = getelementptr inbounds %struct.PJconsts, ptr %105, i32 0, i32 63
  %107 = load double, ptr %106, align 8
  %108 = call double @cos(double noundef %107) #7
  %109 = load ptr, ptr %5, align 8
  %110 = getelementptr inbounds %"struct.(anonymous namespace)::pj_airy", ptr %109, i32 0, i32 2
  store double %108, ptr %110, align 8
  br label %111

111:                                              ; preds = %96, %93
  br label %112

112:                                              ; preds = %111, %86
  %113 = load ptr, ptr %3, align 8
  %114 = getelementptr inbounds %struct.PJconsts, ptr %113, i32 0, i32 14
  store ptr @_ZL14airy_s_forward5PJ_LPP8PJconsts, ptr %114, align 8
  %115 = load ptr, ptr %3, align 8
  %116 = getelementptr inbounds %struct.PJconsts, ptr %115, i32 0, i32 28
  store double 0.000000e+00, ptr %116, align 8
  %117 = load ptr, ptr %3, align 8
  store ptr %117, ptr %2, align 8
  br label %118

118:                                              ; preds = %112, %11
  %119 = load ptr, ptr %2, align 8
  ret ptr %119
}