; Function Attrs: mustprogress uwtable
define hidden noundef ptr @_Z33pj_projection_specific_setup_airyP8PJconsts(ptr noundef %0) local_unnamed_addr #0 {
  %2 = tail call noalias dereferenceable_or_null(40) ptr @calloc(i64 noundef 1, i64 noundef 40) #5
  %3 = icmp eq ptr %2, null
  br i1 %3, label %4, label %6

4:                                                ; preds = %1
  %5 = tail call noundef ptr @_Z21pj_default_destructorP8PJconstsi(ptr noundef %0, i32 noundef 4096)
  br label %56

6:                                                ; preds = %1
  %7 = getelementptr inbounds i8, ptr %0, i64 88
  store ptr %2, ptr %7, align 8
  %8 = load ptr, ptr %0, align 8
  %9 = getelementptr inbounds i8, ptr %0, i64 24
  %10 = load ptr, ptr %9, align 8
  %11 = tail call i64 @_Z8pj_paramP6pj_ctxP8ARG_listPKc(ptr noundef %8, ptr noundef %10, ptr noundef nonnull @.str.1)
  %.sroa.01.0.extract.trunc = trunc i64 %11 to i32
  %12 = getelementptr inbounds i8, ptr %2, i64 36
  store i32 %.sroa.01.0.extract.trunc, ptr %12, align 4
  %13 = load ptr, ptr %0, align 8
  %14 = load ptr, ptr %9, align 8
  %15 = tail call i64 @_Z8pj_paramP6pj_ctxP8ARG_listPKc(ptr noundef %13, ptr noundef %14, ptr noundef nonnull @.str.2)
  %16 = bitcast i64 %15 to double
  %17 = fsub double 0x3FF921FB54442D18, %16
  %18 = fmul double %17, 5.000000e-01
  %19 = tail call double @llvm.fabs.f64(double %18)
  %20 = fcmp olt double %19, 1.000000e-10
  br i1 %20, label %21, label %23

21:                                               ; preds = %6
  %22 = getelementptr inbounds i8, ptr %2, i64 24
  store double -5.000000e-01, ptr %22, align 8
  br label %32

23:                                               ; preds = %6
  %24 = tail call double @tan(double noundef %18) #6
  %25 = fdiv double 1.000000e+00, %24
  %26 = getelementptr inbounds i8, ptr %2, i64 24
  store double %25, ptr %26, align 8
  %27 = tail call double @cos(double noundef %18) #6
  %28 = tail call double @log(double noundef %27) #6
  %29 = fmul double %25, %28
  %30 = load double, ptr %26, align 8
  %31 = fmul double %30, %29
  store double %31, ptr %26, align 8
  br label %32

32:                                               ; preds = %23, %21
  %33 = getelementptr inbounds i8, ptr %0, i64 448
  %34 = load double, ptr %33, align 8
  %35 = tail call double @llvm.fabs.f64(double %34)
  %36 = fadd double %35, 0xBFF921FB54442D18
  %37 = tail call double @llvm.fabs.f64(double %36)
  %38 = fcmp olt double %37, 1.000000e-10
  %39 = getelementptr inbounds i8, ptr %2, i64 32
  br i1 %38, label %40, label %44

40:                                               ; preds = %32
  %41 = fcmp olt double %34, 0.000000e+00
  br i1 %41, label %42, label %43

42:                                               ; preds = %40
  store double 0xBFF921FB54442D18, ptr %2, align 8
  store i32 1, ptr %39, align 8
  br label %53

43:                                               ; preds = %40
  store double 0x3FF921FB54442D18, ptr %2, align 8
  store i32 0, ptr %39, align 8
  br label %53

44:                                               ; preds = %32
  %45 = fcmp olt double %35, 1.000000e-10
  br i1 %45, label %46, label %47

46:                                               ; preds = %44
  store i32 2, ptr %39, align 8
  br label %53

47:                                               ; preds = %44
  store i32 3, ptr %39, align 8
  %48 = tail call double @sin(double noundef %34) #6
  %49 = getelementptr inbounds i8, ptr %2, i64 8
  store double %48, ptr %49, align 8
  %50 = load double, ptr %33, align 8
  %51 = tail call double @cos(double noundef %50) #6
  %52 = getelementptr inbounds i8, ptr %2, i64 16
  store double %51, ptr %52, align 8
  br label %53

53:                                               ; preds = %46, %47, %42, %43
  %54 = getelementptr inbounds i8, ptr %0, i64 104
  store ptr @_ZL14airy_s_forward5PJ_LPP8PJconsts, ptr %54, align 8
  %55 = getelementptr inbounds i8, ptr %0, i64 216
  store double 0.000000e+00, ptr %55, align 8
  br label %56

56:                                               ; preds = %53, %4
  %.0 = phi ptr [ %5, %4 ], [ %0, %53 ]
  ret ptr %.0
}